; Function Attrs: mustprogress uwtable
define internal fastcc void @"_ZZN2cv5gimpl6passes7dumpDotERKN3ade5GraphERSoENK3$_2clB5cxx11ENS2_6HandleINS2_4NodeEEE"(ptr dead_on_unwind noalias writable align 8 %0, ptr nocapture readonly %.0.val, ptr %.0.val1, ptr %.8.val) unnamed_addr #3 align 2 personality ptr @__gxx_personality_v0 {
  %2 = alloca %"class.std::__cxx11::basic_string", align 8
  %3 = alloca %"class.std::__cxx11::basic_string", align 8
  %4 = alloca %"class.ade::Handle", align 8
  store ptr %.0.val1, ptr %4, align 8
  %5 = getelementptr inbounds i8, ptr %4, i64 8
  store ptr %.8.val, ptr %5, align 8
  %.not.i.i.i.i = icmp eq ptr %.8.val, null
  br i1 %.not.i.i.i.i, label %_ZN3ade6HandleINS_4NodeEEC2ERKS2_.exit, label %6

6:                                                ; preds = %1
  %7 = getelementptr inbounds i8, ptr %.8.val, i64 12
  %8 = load i8, ptr @__libc_single_threaded, align 1
  %.not.i.i.i.i.i = icmp eq i8 %8, 0
  br i1 %.not.i.i.i.i.i, label %12, label %9

9:                                                ; preds = %6
  %10 = load i32, ptr %7, align 4
  %11 = add nsw i32 %10, 1
  store i32 %11, ptr %7, align 4
  br label %_ZN3ade6HandleINS_4NodeEEC2ERKS2_.exit

12:                                               ; preds = %6
  %13 = atomicrmw volatile add ptr %7, i32 1 acq_rel, align 4
  br label %_ZN3ade6HandleINS_4NodeEEC2ERKS2_.exit

_ZN3ade6HandleINS_4NodeEEC2ERKS2_.exit:           ; preds = %1, %9, %12
  invoke fastcc void @"_ZZN2cv5gimpl6passes7dumpDotERKN3ade5GraphERSoENK3$_3clB5cxx11ENS2_6HandleINS2_4NodeEEE"(ptr dead_on_unwind noalias nonnull writable align 8 %3, ptr noundef nonnull align 8 dereferenceable(8) %.0.val, ptr noundef nonnull %4)
          to label %14 unwind label %34

14:                                               ; preds = %_ZN3ade6HandleINS_4NodeEEC2ERKS2_.exit
  %15 = invoke noundef nonnull align 8 dereferenceable(32) ptr @_ZNSt7__cxx1112basic_stringIcSt11char_traitsIcESaIcEE6insertEmPKc(ptr noundef nonnull align 8 dereferenceable(32) %3, i64 noundef 0, ptr noundef nonnull @.str.8)
          to label %16 unwind label %36

16:                                               ; preds = %14
  call void @_ZNSt7__cxx1112basic_stringIcSt11char_traitsIcESaIcEEC1EOS4_(ptr noundef nonnull align 8 dereferenceable(32) %2, ptr noundef nonnull align 8 dereferenceable(32) %15) #19
  %17 = invoke noundef nonnull align 8 dereferenceable(32) ptr @_ZNSt7__cxx1112basic_stringIcSt11char_traitsIcESaIcEE6appendEPKc(ptr noundef nonnull align 8 dereferenceable(32) %2, ptr noundef nonnull @.str.8)
          to label %18 unwind label %38

18:                                               ; preds = %16
  call void @_ZNSt7__cxx1112basic_stringIcSt11char_traitsIcESaIcEEC1EOS4_(ptr noundef nonnull align 8 dereferenceable(32) %0, ptr noundef nonnull align 8 dereferenceable(32) %17) #19
  call void @_ZNSt7__cxx1112basic_stringIcSt11char_traitsIcESaIcEED1Ev(ptr noundef nonnull align 8 dereferenceable(32) %2) #19
  call void @_ZNSt7__cxx1112basic_stringIcSt11char_traitsIcESaIcEED1Ev(ptr noundef nonnull align 8 dereferenceable(32) %3) #19
  %19 = load ptr, ptr %5, align 8
  %.not.i.i.i.i6 = icmp eq ptr %19, null
  br i1 %.not.i.i.i.i6, label %_ZN3ade6HandleINS_4NodeEED2Ev.exit, label %20

20:                                               ; preds = %18
  %21 = getelementptr inbounds i8, ptr %19, i64 12
  %22 = load i8, ptr @__libc_single_threaded, align 1
  %.not.i.i.i.i.i7 = icmp eq i8 %22, 0
  br i1 %.not.i.i.i.i.i7, label %26, label %23

23:                                               ; preds = %20
  %24 = load i32, ptr %21, align 4
  %25 = add nsw i32 %24, -1
  store i32 %25, ptr %21, align 4
  br label %28

26:                                               ; preds = %20
  %27 = atomicrmw volatile add ptr %21, i32 -1 acq_rel, align 4
  br label %28

28:                                               ; preds = %26, %23
  %.0.i.i.i.i.i = phi i32 [ %24, %23 ], [ %27, %26 ]
  %29 = icmp eq i32 %.0.i.i.i.i.i, 1
  br i1 %29, label %30, label %_ZN3ade6HandleINS_4NodeEED2Ev.exit

30:                                               ; preds = %28
  %31 = load ptr, ptr %19, align 8
  %32 = getelementptr inbounds i8, ptr %31, i64 24
  %33 = load ptr, ptr %32, align 8
  call void %33(ptr noundef nonnull align 8 dereferenceable(16) %19) #19
  br label %_ZN3ade6HandleINS_4NodeEED2Ev.exit

_ZN3ade6HandleINS_4NodeEED2Ev.exit:               ; preds = %18, %28, %30
  ret void

34:                                               ; preds = %_ZN3ade6HandleINS_4NodeEEC2ERKS2_.exit
  %35 = landingpad { ptr, i32 }
          cleanup
  br label %41

36:                                               ; preds = %14
  %37 = landingpad { ptr, i32 }
          cleanup
  br label %40

38:                                               ; preds = %16
  %39 = landingpad { ptr, i32 }
          cleanup
  call void @_ZNSt7__cxx1112basic_stringIcSt11char_traitsIcESaIcEED1Ev(ptr noundef nonnull align 8 dereferenceable(32) %2) #19
  br label %40

40:                                               ; preds = %38, %36
  %.pn = phi { ptr, i32 } [ %39, %38 ], [ %37, %36 ]
  call void @_ZNSt7__cxx1112basic_stringIcSt11char_traitsIcESaIcEED1Ev(ptr noundef nonnull align 8 dereferenceable(32) %3) #19
  br label %41

41:                                               ; preds = %40, %34
  %.pn.pn = phi { ptr, i32 } [ %.pn, %40 ], [ %35, %34 ]
  %42 = load ptr, ptr %5, align 8
  %.not.i.i.i.i8 = icmp eq ptr %42, null
  br i1 %.not.i.i.i.i8, label %_ZN3ade6HandleINS_4NodeEED2Ev.exit11, label %43

43:                                               ; preds = %41
  %44 = getelementptr inbounds i8, ptr %42, i64 12
  %45 = load i8, ptr @__libc_single_threaded, align 1
  %.not.i.i.i.i.i9 = icmp eq i8 %45, 0
  br i1 %.not.i.i.i.i.i9, label %49, label %46

46:                                               ; preds = %43
  %47 = load i32, ptr %44, align 4
  %48 = add nsw i32 %47, -1
  store i32 %48, ptr %44, align 4
  br label %51

49:                                               ; preds = %43
  %50 = atomicrmw volatile add ptr %44, i32 -1 acq_rel, align 4
  br label %51

51:                                               ; preds = %49, %46
  %.0.i.i.i.i.i10 = phi i32 [ %47, %46 ], [ %50, %49 ]
  %52 = icmp eq i32 %.0.i.i.i.i.i10, 1
  br i1 %52, label %53, label %_ZN3ade6HandleINS_4NodeEED2Ev.exit11

53:                                               ; preds = %51
  %54 = load ptr, ptr %42, align 8
  %55 = getelementptr inbounds i8, ptr %54, i64 24
  %56 = load ptr, ptr %55, align 8
  call void %56(ptr noundef nonnull align 8 dereferenceable(16) %42) #19
  br label %_ZN3ade6HandleINS_4NodeEED2Ev.exit11

_ZN3ade6HandleINS_4NodeEED2Ev.exit11:             ; preds = %41, %51, %53
  resume { ptr, i32 } %.pn.pn
}